Certificate:
    Data:
        Version: 3 (0x2)
        Serial Number: 287 (0x11f)
    Signature Algorithm: sha256WithRSAEncryption
        Issuer: C=TW, ST=WiProcurement, L=WiProcurement, O=WiProcurement, OU=WiProcurement, CN=WiProcurement/emailAddress=WiProcurement@WiProcurement.com
        Validity
            Not Before: Nov  8 09:04:20 2018 GMT
            Not After : Nov  5 09:04:20 2028 GMT
        Subject: C=TW, ST=WiProcurement, O=WiProcurement, OU=WiProcurement, CN=WiProcurement/emailAddress=WiProcurement@WiProcurement.com
        Subject Public Key Info:
            Public Key Algorithm: rsaEncryption
                Public-Key: (2048 bit)
                Modulus:
                    00:b3:b2:73:cc:f9:61:93:00:d3:d5:4e:4b:1a:81:
                    f3:04:92:0f:ac:ea:ad:06:69:54:a3:6e:b1:ee:86:
                    e3:c4:dd:3e:9d:fd:f6:42:8f:74:f1:51:c2:2f:2e:
                    70:a1:b9:7e:48:b3:f3:d4:25:ef:36:fe:af:f9:3a:
                    94:52:44:f8:d9:d0:5c:10:2f:80:20:6b:4f:b5:25:
                    ba:7f:53:03:d6:3e:6a:f4:90:12:a0:3d:8b:d7:4f:
                    9d:4e:68:3e:9b:ce:36:f1:bb:04:3e:05:e3:eb:bc:
                    5d:c1:01:e8:e9:39:e8:a0:bd:69:67:52:1d:8c:36:
                    02:79:85:5d:f3:16:35:f9:f3:e7:b9:ed:d0:3a:8d:
                    61:b3:8f:15:4e:70:39:5d:08:aa:cf:1f:a3:bb:a9:
                    37:35:7c:cb:07:d2:54:e5:72:90:83:09:bb:e7:a2:
                    c6:c3:3e:5c:d0:e0:5e:65:e5:0d:30:95:61:2a:76:
                    4d:e3:65:62:70:06:55:51:84:54:f2:56:5d:56:c4:
                    2a:ed:2f:18:be:9b:ea:9f:6e:70:45:51:c1:ae:cb:
                    93:de:eb:17:7a:7a:9a:75:b2:81:49:92:ff:3f:ec:
                    4a:50:bd:f2:12:8c:24:99:6e:63:35:bd:12:2e:aa:
                    fd:cf:58:ea:19:b4:a5:e9:6d:23:a3:19:e6:32:27:
                    a8:77
                Exponent: 65537 (0x10001)
        X509v3 extensions:
            X509v3 Basic Constraints: 
                CA:FALSE
            Netscape Comment: 
                OpenSSL Generated Certificate
            X509v3 Subject Key Identifier: 
                6D:F3:29:8D:40:FC:74:14:62:8C:D5:BA:A6:E0:79:98:A1:4E:34:4D
            X509v3 Authority Key Identifier: 
                keyid:6B:96:4C:B5:AE:35:97:48:4D:65:41:8F:F2:22:28:55:50:C5:D3:2E

    Signature Algorithm: sha256WithRSAEncryption
         14:8b:ce:5e:8c:c4:05:70:a9:d0:7b:23:43:d5:dc:23:27:30:
         27:ff:43:9c:1e:0a:55:10:d5:c9:32:e0:8c:5f:ee:76:9d:c2:
         0a:6f:56:ef:ba:54:d5:32:2e:0d:21:e6:20:6d:1c:90:41:a8:
         a7:96:5e:de:ac:e4:94:40:26:d9:b2:15:9b:7b:57:83:48:72:
         58:fc:e9:65:48:75:0f:96:73:77:64:29:f3:f2:b8:88:d5:46:
         e6:b6:77:96:f0:d9:56:f1:68:68:fb:57:74:86:c0:e0:f7:f8:
         f0:56:f7:11:8c:4c:21:70:d4:de:61:2a:ef:18:eb:86:4f:a9:
         12:5f:74:16:18:5c:f4:36:27:74:52:89:5b:3b:6c:f6:98:a5:
         42:51:84:9c:fc:25:03:58:c6:a8:1d:a2:b2:a6:9a:e1:cc:0a:
         76:11:ec:77:c3:44:8d:59:41:d9:a1:44:a8:9e:bb:81:2d:e2:
         57:fc:28:b4:ac:12:08:a4:e9:86:f8:c7:b7:9b:be:b8:7a:45:
         c6:d1:6f:16:de:bf:1e:a1:39:d5:a7:10:5b:e7:dc:bc:1f:30:
         46:61:51:91:91:c7:74:4a:d0:f7:21:7a:ea:36:32:0c:00:24:
         de:97:9b:0a:0e:bc:8f:32:b5:67:b8:ed:51:de:d4:f5:82:d9:
         6e:b5:54:82
-----BEGIN CERTIFICATE-----
MIIESzCCAzOgAwIBAgICAR8wDQYJKoZIhvcNAQELBQAwgbUxCzAJBgNVBAYTAlRX
MRYwFAYDVQQIDA1XaVByb2N1cmVtZW50MRYwFAYDVQQHDA1XaVByb2N1cmVtZW50
MRYwFAYDVQQKDA1XaVByb2N1cmVtZW50MRYwFAYDVQQLDA1XaVByb2N1cmVtZW50
MRYwFAYDVQQDDA1XaVByb2N1cmVtZW50MS4wLAYJKoZIhvcNAQkBFh9XaVByb2N1
cmVtZW50QFdpUHJvY3VyZW1lbnQuY29tMB4XDTE4MTEwODA5MDQyMFoXDTI4MTEw
NTA5MDQyMFowgZ0xCzAJBgNVBAYTAlRXMRYwFAYDVQQIDA1XaVByb2N1cmVtZW50
MRYwFAYDVQQKDA1XaVByb2N1cmVtZW50MRYwFAYDVQQLDA1XaVByb2N1cmVtZW50
MRYwFAYDVQQDDA1XaVByb2N1cmVtZW50MS4wLAYJKoZIhvcNAQkBFh9XaVByb2N1
cmVtZW50QFdpUHJvY3VyZW1lbnQuY29tMIIBIjANBgkqhkiG9w0BAQEFAAOCAQ8A
MIIBCgKCAQEAs7JzzPlhkwDT1U5LGoHzBJIPrOqtBmlUo26x7objxN0+nf32Qo90
8VHCLy5wobl+SLPz1CXvNv6v+TqUUkT42dBcEC+AIGtPtSW6f1MD1j5q9JASoD2L
10+dTmg+m8428bsEPgXj67xdwQHo6TnooL1pZ1IdjDYCeYVd8xY1+fPnue3QOo1h
s48VTnA5XQiqzx+ju6k3NXzLB9JU5XKQgwm756LGwz5c0OBeZeUNMJVhKnZN42Vi
cAZVUYRU8lZdVsQq7S8Yvpvqn25wRVHBrsuT3usXenqadbKBSZL/P+xKUL3yEowk
mW5jNb0SLqr9z1jqGbSl6W0joxnmMieodwIDAQABo3sweTAJBgNVHRMEAjAAMCwG
CWCGSAGG+EIBDQQfFh1PcGVuU1NMIEdlbmVyYXRlZCBDZXJ0aWZpY2F0ZTAdBgNV
HQ4EFgQUbfMpjUD8dBRijNW6puB5mKFONE0wHwYDVR0jBBgwFoAUa5ZMta41l0hN
ZUGP8iIoVVDF0y4wDQYJKoZIhvcNAQELBQADggEBABSLzl6MxAVwqdB7I0PV3CMn
MCf/Q5weClUQ1cky4Ixf7nadwgpvVu+6VNUyLg0h5iBtHJBBqKeWXt6s5JRAJtmy
FZt7V4NIclj86WVIdQ+Wc3dkKfPyuIjVRua2d5bw2VbxaGj7V3SGwOD3+PBW9xGM
TCFw1N5hKu8Y64ZPqRJfdBYYXPQ2J3RSiVs7bPaYpUJRhJz8JQNYxqgdorKmmuHM
CnYR7HfDRI1ZQdmhRKieu4Et4lf8KLSsEgik6Yb4x7ebvrh6RcbRbxbevx6hOdWn
EFvn3LwfMEZhUZGRx3RK0Pcheuo2MgwAJN6XmwoOvI8ytWe47VHe1PWC2W61VII=
-----END CERTIFICATE-----